target datalayout = "e-m:e-p270:32:32-p271:32:32-p272:64:64-i64:64-i128:128-f80:128-n8:16:32:64-S128"
target triple = "x86_64-unknown-linux-gnu"

%class.svector = type { %class.vector.2 }
%class.vector.2 = type { ptr }
%"struct.special_relations_tactic::sp_axioms" = type <{ %class.svector, i32, [4 x i8] }>

; Function Attrs: mustprogress nounwind uwtable
define linkonce_odr hidden void @_ZN6vectorIjLb0EjEC2Ev(ptr noundef nonnull align 8 dereferenceable(8) %this) unnamed_addr #5 comdat align 2 {
entry:
  %this.addr = alloca ptr, align 8
  store ptr %this, ptr %this.addr, align 8
  %this1 = load ptr, ptr %this.addr, align 8
  %m_data = getelementptr inbounds %class.vector.2, ptr %this1, i32 0, i32 0
  store ptr null, ptr %m_data, align 8
  ret void
}

; Function Attrs: mustprogress nounwind uwtable
define linkonce_odr hidden void @_ZN7svectorIjjEC2Ev(ptr noundef nonnull align 8 dereferenceable(8) %this) unnamed_addr #5 comdat align 2 {
entry:
  %this.addr = alloca ptr, align 8
  store ptr %this, ptr %this.addr, align 8
  %this1 = load ptr, ptr %this.addr, align 8
  %0 = getelementptr inbounds i8, ptr %this1, i64 0
  call void @llvm.memset.p0.i64(ptr align 8 %0, i8 0, i64 8, i1 false)
  call void @_ZN6vectorIjLb0EjEC2Ev(ptr noundef nonnull align 8 dereferenceable(8) %this1) #3
  ret void
}

; Function Attrs: mustprogress uwtable
define linkonce_odr hidden noundef nonnull align 8 dereferenceable(8) ptr @_ZN6vectorIjLb0EjE9push_backERKj(ptr noundef nonnull align 8 dereferenceable(8) %this, ptr noundef nonnull align 4 dereferenceable(4) %elem) #4 comdat align 2 {
entry:
  %this.addr = alloca ptr, align 8
  %elem.addr = alloca ptr, align 8
  store ptr %this, ptr %this.addr, align 8
  store ptr %elem, ptr %elem.addr, align 8
  %this1 = load ptr, ptr %this.addr, align 8
  %m_data = getelementptr inbounds %class.vector.2, ptr %this1, i32 0, i32 0
  %0 = load ptr, ptr %m_data, align 8
  %cmp = icmp eq ptr %0, null
  br i1 %cmp, label %if.then, label %lor.lhs.false

lor.lhs.false:                                    ; preds = %entry
  %m_data2 = getelementptr inbounds %class.vector.2, ptr %this1, i32 0, i32 0
  %1 = load ptr, ptr %m_data2, align 8
  %arrayidx = getelementptr inbounds i32, ptr %1, i64 -1
  %2 = load i32, ptr %arrayidx, align 4
  %m_data3 = getelementptr inbounds %class.vector.2, ptr %this1, i32 0, i32 0
  %3 = load ptr, ptr %m_data3, align 8
  %arrayidx4 = getelementptr inbounds i32, ptr %3, i64 -2
  %4 = load i32, ptr %arrayidx4, align 4
  %cmp5 = icmp eq i32 %2, %4
  br i1 %cmp5, label %if.then, label %if.end

if.then:                                          ; preds = %lor.lhs.false, %entry
  call void @_ZN6vectorIjLb0EjE13expand_vectorEv(ptr noundef nonnull align 8 dereferenceable(8) %this1)
  br label %if.end

if.end:                                           ; preds = %if.then, %lor.lhs.false
  %m_data6 = getelementptr inbounds %class.vector.2, ptr %this1, i32 0, i32 0
  %5 = load ptr, ptr %m_data6, align 8
  %m_data7 = getelementptr inbounds %class.vector.2, ptr %this1, i32 0, i32 0
  %6 = load ptr, ptr %m_data7, align 8
  %arrayidx8 = getelementptr inbounds i32, ptr %6, i64 -1
  %7 = load i32, ptr %arrayidx8, align 4
  %idx.ext = zext i32 %7 to i64
  %add.ptr = getelementptr inbounds i32, ptr %5, i64 %idx.ext
  %8 = load ptr, ptr %elem.addr, align 8
  %9 = load i32, ptr %8, align 4
  store i32 %9, ptr %add.ptr, align 4
  %m_data9 = getelementptr inbounds %class.vector.2, ptr %this1, i32 0, i32 0
  %10 = load ptr, ptr %m_data9, align 8
  %arrayidx10 = getelementptr inbounds i32, ptr %10, i64 -1
  %11 = load i32, ptr %arrayidx10, align 4
  %inc = add i32 %11, 1
  store i32 %inc, ptr %arrayidx10, align 4
  ret ptr %this1
}

; Function Attrs: mustprogress uwtable
define linkonce_odr hidden void @_ZN24special_relations_tactic9sp_axiomsC2Ev(ptr noundef nonnull align 8 dereferenceable(12) %this) unnamed_addr #4 comdat align 2 {
entry:
  %this.addr = alloca ptr, align 8
  store ptr %this, ptr %this.addr, align 8
  %this1 = load ptr, ptr %this.addr, align 8
  %m_goal_indices = getelementptr inbounds %"struct.special_relations_tactic::sp_axioms", ptr %this1, i32 0, i32 0
  call void @_ZN7svectorIjjEC2Ev(ptr noundef nonnull align 8 dereferenceable(8) %m_goal_indices)
  %m_sp_features = getelementptr inbounds %"struct.special_relations_tactic::sp_axioms", ptr %this1, i32 0, i32 1
  store i32 0, ptr %m_sp_features, align 8
  ret void
}

; Function Attrs: mustprogress uwtable
define hidden void @_ZN24special_relations_tactic6insertER7obj_mapI9func_declNS_9sp_axiomsEEPS1_j11sr_property(ptr noundef nonnull align 8 dereferenceable(104) %this, ptr noundef nonnull align 1 %goal_features, ptr noundef %f, i32 noundef %idx, i32 noundef %p) #4 align 2 personality ptr @__gxx_personality_v0 {
entry:
  %this.addr = alloca ptr, align 8
  %goal_features.addr = alloca ptr, align 8
  %f.addr = alloca ptr, align 8
  %idx.addr = alloca i32, align 4
  %p.addr = alloca i32, align 4
  %ax = alloca %"struct.special_relations_tactic::sp_axioms", align 8
  %exn.slot = alloca ptr, align 8
  %ehselector.slot = alloca i32, align 4
  store ptr %this, ptr %this.addr, align 8
  store ptr %goal_features, ptr %goal_features.addr, align 8
  store ptr %f, ptr %f.addr, align 8
  store i32 %idx, ptr %idx.addr, align 4
  store i32 %p, ptr %p.addr, align 4
  call void @_ZN24special_relations_tactic9sp_axiomsC2Ev(ptr noundef nonnull align 8 dereferenceable(12) %ax)
  %0 = load ptr, ptr %goal_features.addr, align 8
  %1 = load ptr, ptr %f.addr, align 8
  %call = invoke noundef zeroext i1 @_ZNK7obj_mapI9func_declN24special_relations_tactic9sp_axiomsEE4findEPS0_RS2_(ptr noundef nonnull align 8 dereferenceable(24) %0, ptr noundef %1, ptr noundef nonnull align 8 dereferenceable(12) %ax)
          to label %invoke.cont unwind label %lpad

invoke.cont:                                      ; preds = %entry
  %m_goal_indices = getelementptr inbounds %"struct.special_relations_tactic::sp_axioms", ptr %ax, i32 0, i32 0
  %call3 = invoke noundef nonnull align 8 dereferenceable(8) ptr @_ZN6vectorIjLb0EjE9push_backERKj(ptr noundef nonnull align 8 dereferenceable(8) %m_goal_indices, ptr noundef nonnull align 4 dereferenceable(4) %idx.addr)
          to label %invoke.cont2 unwind label %lpad

invoke.cont2:                                     ; preds = %invoke.cont
  %2 = load i32, ptr %p.addr, align 4
  %m_sp_features = getelementptr inbounds %"struct.special_relations_tactic::sp_axioms", ptr %ax, i32 0, i32 1
  %3 = load i32, ptr %m_sp_features, align 8
  %or = or i32 %2, %3
  %m_sp_features4 = getelementptr inbounds %"struct.special_relations_tactic::sp_axioms", ptr %ax, i32 0, i32 1
  store i32 %or, ptr %m_sp_features4, align 8
  %4 = load ptr, ptr %goal_features.addr, align 8
  %5 = load ptr, ptr %f.addr, align 8
  invoke void @_ZN7obj_mapI9func_declN24special_relations_tactic9sp_axiomsEE6insertEPS0_RKS2_(ptr noundef nonnull align 8 dereferenceable(24) %4, ptr noundef %5, ptr noundef nonnull align 8 dereferenceable(12) %ax)
          to label %invoke.cont5 unwind label %lpad

invoke.cont5:                                     ; preds = %invoke.cont2
  call void @_ZN24special_relations_tactic9sp_axiomsD2Ev(ptr noundef nonnull align 8 dereferenceable(12) %ax) #3
  ret void

lpad:                                             ; preds = %invoke.cont2, %invoke.cont, %entry
  %6 = landingpad { ptr, i32 }
          cleanup
  %7 = extractvalue { ptr, i32 } %6, 0
  store ptr %7, ptr %exn.slot, align 8
  %8 = extractvalue { ptr, i32 } %6, 1
  store i32 %8, ptr %ehselector.slot, align 4
  call void @_ZN24special_relations_tactic9sp_axiomsD2Ev(ptr noundef nonnull align 8 dereferenceable(12) %ax) #3
  br label %eh.resume

eh.resume:                                        ; preds = %lpad
  %exn = load ptr, ptr %exn.slot, align 8
  %sel = load i32, ptr %ehselector.slot, align 4
  %lpad.val = insertvalue { ptr, i32 } poison, ptr %exn, 0
  %lpad.val6 = insertvalue { ptr, i32 } %lpad.val, i32 %sel, 1
  resume { ptr, i32 } %lpad.val6
}