; Function Attrs: mustprogress uwtable
define hidden void @_ZN24special_relations_tactic6insertER7obj_mapI9func_declNS_9sp_axiomsEEPS1_j11sr_property(ptr nocapture nonnull readnone align 8 %this, ptr noundef nonnull align 1 %goal_features, ptr noundef %f, i32 noundef %idx, i32 noundef %p) local_unnamed_addr #3 align 2 personality ptr @__gxx_personality_v0 {
entry:
  %ax = alloca %"struct.special_relations_tactic::sp_axioms", align 8
  store ptr null, ptr %ax, align 8
  %m_sp_features.i = getelementptr inbounds i8, ptr %ax, i64 8
  store i32 0, ptr %m_sp_features.i, align 8
  %call = invoke noundef zeroext i1 @_ZNK7obj_mapI9func_declN24special_relations_tactic9sp_axiomsEE4findEPS0_RS2_(ptr noundef nonnull align 8 dereferenceable(24) %goal_features, ptr noundef %f, ptr noundef nonnull align 8 dereferenceable(12) %ax)
          to label %invoke.cont unwind label %lpad

invoke.cont:                                      ; preds = %entry
  %0 = load ptr, ptr %ax, align 8
  %cmp.i = icmp eq ptr %0, null
  br i1 %cmp.i, label %if.then.i, label %lor.lhs.false.i

lor.lhs.false.i:                                  ; preds = %invoke.cont
  %arrayidx.i = getelementptr inbounds i8, ptr %0, i64 -4
  %1 = load i32, ptr %arrayidx.i, align 4
  %arrayidx4.i = getelementptr inbounds i8, ptr %0, i64 -8
  %2 = load i32, ptr %arrayidx4.i, align 4
  %cmp5.i = icmp eq i32 %1, %2
  br i1 %cmp5.i, label %if.then.i, label %invoke.cont2

if.then.i:                                        ; preds = %lor.lhs.false.i, %invoke.cont
  invoke void @_ZN6vectorIjLb0EjE13expand_vectorEv(ptr noundef nonnull align 8 dereferenceable(8) %ax)
          to label %.noexc unwind label %lpad

.noexc:                                           ; preds = %if.then.i
  %.pre.i = load ptr, ptr %ax, align 8
  %arrayidx8.phi.trans.insert.i = getelementptr inbounds i8, ptr %.pre.i, i64 -4
  %.pre1.i = load i32, ptr %arrayidx8.phi.trans.insert.i, align 4
  br label %invoke.cont2

invoke.cont2:                                     ; preds = %.noexc, %lor.lhs.false.i
  %3 = phi i32 [ %.pre1.i, %.noexc ], [ %1, %lor.lhs.false.i ]
  %4 = phi ptr [ %.pre.i, %.noexc ], [ %0, %lor.lhs.false.i ]
  %idx.ext.i = zext i32 %3 to i64
  %add.ptr.i = getelementptr inbounds i32, ptr %4, i64 %idx.ext.i
  store i32 %idx, ptr %add.ptr.i, align 4
  %5 = load ptr, ptr %ax, align 8
  %arrayidx10.i = getelementptr inbounds i8, ptr %5, i64 -4
  %6 = load i32, ptr %arrayidx10.i, align 4
  %inc.i = add i32 %6, 1
  store i32 %inc.i, ptr %arrayidx10.i, align 4
  %7 = load i32, ptr %m_sp_features.i, align 8
  %or = or i32 %7, %p
  store i32 %or, ptr %m_sp_features.i, align 8
  invoke void @_ZN7obj_mapI9func_declN24special_relations_tactic9sp_axiomsEE6insertEPS0_RKS2_(ptr noundef nonnull align 8 dereferenceable(24) %goal_features, ptr noundef %f, ptr noundef nonnull align 8 dereferenceable(12) %ax)
          to label %invoke.cont5 unwind label %lpad

invoke.cont5:                                     ; preds = %invoke.cont2
  %8 = load ptr, ptr %ax, align 8
  %tobool.not.i.i.i.i = icmp eq ptr %8, null
  br i1 %tobool.not.i.i.i.i, label %_ZN24special_relations_tactic9sp_axiomsD2Ev.exit, label %if.then.i.i.i.i

if.then.i.i.i.i:                                  ; preds = %invoke.cont5
  %add.ptr.i.i.i.i.i = getelementptr inbounds i8, ptr %8, i64 -8
  invoke void @_ZN6memory10deallocateEPv(ptr noundef nonnull %add.ptr.i.i.i.i.i)
          to label %_ZN24special_relations_tactic9sp_axiomsD2Ev.exit unwind label %terminate.lpad.i.i.i

terminate.lpad.i.i.i:                             ; preds = %if.then.i.i.i.i
  %9 = landingpad { ptr, i32 }
          catch ptr null
  %10 = extractvalue { ptr, i32 } %9, 0
  call void @__clang_call_terminate(ptr %10) #17
  unreachable

_ZN24special_relations_tactic9sp_axiomsD2Ev.exit: ; preds = %invoke.cont5, %if.then.i.i.i.i
  ret void

lpad:                                             ; preds = %if.then.i, %invoke.cont2, %entry
  %11 = landingpad { ptr, i32 }
          cleanup
  call void @_ZN24special_relations_tactic9sp_axiomsD2Ev(ptr noundef nonnull align 8 dereferenceable(12) %ax) #16
  resume { ptr, i32 } %11
}